; ModuleID = '35/2363.c'
source_filename = "35/2363.c"
target datalayout = "e-m:e-p270:32:32-p271:32:32-p272:64:64-i64:64-f80:128-n8:16:32:64-S128"
target triple = "x86_64-pc-linux-gnu"

@.str = private unnamed_addr constant [6 x i8] c"%d,%d\00", align 1
@.str.1 = private unnamed_addr constant [3 x i8] c"%d\00", align 1
@.str.2 = private unnamed_addr constant [6 x i8] c"%d+%d\00", align 1
@.str.3 = private unnamed_addr constant [3 x i8] c"No\00", align 1

; Function Attrs: noinline nounwind uwtable
define dso_local i32 @main() #0 {
  %1 = alloca i32, align 4
  %2 = alloca i32, align 4
  %3 = alloca i32, align 4
  %4 = alloca i32, align 4
  %5 = alloca i32, align 4
  %6 = alloca i32, align 4
  %7 = alloca [10 x i32], align 16
  %8 = alloca [10 x i32], align 16
  %9 = alloca i32, align 4
  %10 = alloca i32, align 4
  %11 = alloca [10 x [10 x i32]], align 16
  store i32 0, i32* %1, align 4
  %12 = call i32 (i8*, ...) @__isoc99_scanf(i8* getelementptr inbounds ([6 x i8], [6 x i8]* @.str, i64 0, i64 0), i32* %2, i32* %3)
  store i32 0, i32* %9, align 4
  br label %13

13:                                               ; preds = %34, %0
  %14 = load i32, i32* %9, align 4
  %15 = load i32, i32* %2, align 4
  %16 = icmp slt i32 %14, %15
  br i1 %16, label %17, label %37

17:                                               ; preds = %13
  store i32 0, i32* %10, align 4
  br label %18

18:                                               ; preds = %30, %17
  %19 = load i32, i32* %10, align 4
  %20 = load i32, i32* %3, align 4
  %21 = icmp slt i32 %19, %20
  br i1 %21, label %22, label %33

22:                                               ; preds = %18
  %23 = load i32, i32* %9, align 4
  %24 = sext i32 %23 to i64
  %25 = getelementptr inbounds [10 x [10 x i32]], [10 x [10 x i32]]* %11, i64 0, i64 %24
  %26 = load i32, i32* %10, align 4
  %27 = sext i32 %26 to i64
  %28 = getelementptr inbounds [10 x i32], [10 x i32]* %25, i64 0, i64 %27
  %29 = call i32 (i8*, ...) @__isoc99_scanf(i8* getelementptr inbounds ([3 x i8], [3 x i8]* @.str.1, i64 0, i64 0), i32* %28)
  br label %30

30:                                               ; preds = %22
  %31 = load i32, i32* %10, align 4
  %32 = add nsw i32 %31, 1
  store i32 %32, i32* %10, align 4
  br label %18

33:                                               ; preds = %18
  br label %34

34:                                               ; preds = %33
  %35 = load i32, i32* %9, align 4
  %36 = add nsw i32 %35, 1
  store i32 %36, i32* %9, align 4
  br label %13

37:                                               ; preds = %13
  store i32 0, i32* %9, align 4
  br label %38

38:                                               ; preds = %74, %37
  %39 = load i32, i32* %9, align 4
  %40 = load i32, i32* %2, align 4
  %41 = icmp slt i32 %39, %40
  br i1 %41, label %42, label %77

42:                                               ; preds = %38
  store i32 0, i32* %4, align 4
  store i32 0, i32* %10, align 4
  br label %43

43:                                               ; preds = %70, %42
  %44 = load i32, i32* %10, align 4
  %45 = load i32, i32* %3, align 4
  %46 = icmp slt i32 %44, %45
  br i1 %46, label %47, label %73

47:                                               ; preds = %43
  %48 = load i32, i32* %9, align 4
  %49 = sext i32 %48 to i64
  %50 = getelementptr inbounds [10 x [10 x i32]], [10 x [10 x i32]]* %11, i64 0, i64 %49
  %51 = load i32, i32* %10, align 4
  %52 = sext i32 %51 to i64
  %53 = getelementptr inbounds [10 x i32], [10 x i32]* %50, i64 0, i64 %52
  %54 = load i32, i32* %53, align 4
  %55 = load i32, i32* %4, align 4
  %56 = icmp sgt i32 %54, %55
  br i1 %56, label %57, label %69

57:                                               ; preds = %47
  %58 = load i32, i32* %9, align 4
  %59 = sext i32 %58 to i64
  %60 = getelementptr inbounds [10 x [10 x i32]], [10 x [10 x i32]]* %11, i64 0, i64 %59
  %61 = load i32, i32* %10, align 4
  %62 = sext i32 %61 to i64
  %63 = getelementptr inbounds [10 x i32], [10 x i32]* %60, i64 0, i64 %62
  %64 = load i32, i32* %63, align 4
  store i32 %64, i32* %4, align 4
  %65 = load i32, i32* %10, align 4
  %66 = load i32, i32* %9, align 4
  %67 = sext i32 %66 to i64
  %68 = getelementptr inbounds [10 x i32], [10 x i32]* %7, i64 0, i64 %67
  store i32 %65, i32* %68, align 4
  br label %69

69:                                               ; preds = %57, %47
  br label %70

70:                                               ; preds = %69
  %71 = load i32, i32* %10, align 4
  %72 = add nsw i32 %71, 1
  store i32 %72, i32* %10, align 4
  br label %43

73:                                               ; preds = %43
  br label %74

74:                                               ; preds = %73
  %75 = load i32, i32* %9, align 4
  %76 = add nsw i32 %75, 1
  store i32 %76, i32* %9, align 4
  br label %38

77:                                               ; preds = %38
  store i32 0, i32* %9, align 4
  br label %78

78:                                               ; preds = %114, %77
  %79 = load i32, i32* %9, align 4
  %80 = load i32, i32* %3, align 4
  %81 = icmp slt i32 %79, %80
  br i1 %81, label %82, label %117

82:                                               ; preds = %78
  store i32 1000, i32* %5, align 4
  store i32 0, i32* %10, align 4
  br label %83

83:                                               ; preds = %110, %82
  %84 = load i32, i32* %10, align 4
  %85 = load i32, i32* %2, align 4
  %86 = icmp slt i32 %84, %85
  br i1 %86, label %87, label %113

87:                                               ; preds = %83
  %88 = load i32, i32* %10, align 4
  %89 = sext i32 %88 to i64
  %90 = getelementptr inbounds [10 x [10 x i32]], [10 x [10 x i32]]* %11, i64 0, i64 %89
  %91 = load i32, i32* %9, align 4
  %92 = sext i32 %91 to i64
  %93 = getelementptr inbounds [10 x i32], [10 x i32]* %90, i64 0, i64 %92
  %94 = load i32, i32* %93, align 4
  %95 = load i32, i32* %5, align 4
  %96 = icmp slt i32 %94, %95
  br i1 %96, label %97, label %109

97:                                               ; preds = %87
  %98 = load i32, i32* %10, align 4
  %99 = sext i32 %98 to i64
  %100 = getelementptr inbounds [10 x [10 x i32]], [10 x [10 x i32]]* %11, i64 0, i64 %99
  %101 = load i32, i32* %9, align 4
  %102 = sext i32 %101 to i64
  %103 = getelementptr inbounds [10 x i32], [10 x i32]* %100, i64 0, i64 %102
  %104 = load i32, i32* %103, align 4
  store i32 %104, i32* %5, align 4
  %105 = load i32, i32* %10, align 4
  %106 = load i32, i32* %9, align 4
  %107 = sext i32 %106 to i64
  %108 = getelementptr inbounds [10 x i32], [10 x i32]* %8, i64 0, i64 %107
  store i32 %105, i32* %108, align 4
  br label %109

109:                                              ; preds = %97, %87
  br label %110

110:                                              ; preds = %109
  %111 = load i32, i32* %10, align 4
  %112 = add nsw i32 %111, 1
  store i32 %112, i32* %10, align 4
  br label %83

113:                                              ; preds = %83
  br label %114

114:                                              ; preds = %113
  %115 = load i32, i32* %9, align 4
  %116 = add nsw i32 %115, 1
  store i32 %116, i32* %9, align 4
  br label %78

117:                                              ; preds = %78
  store i32 0, i32* %6, align 4
  store i32 0, i32* %9, align 4
  br label %118

118:                                              ; preds = %142, %117
  %119 = load i32, i32* %9, align 4
  %120 = load i32, i32* %2, align 4
  %121 = icmp slt i32 %119, %120
  br i1 %121, label %122, label %145

122:                                              ; preds = %118
  %123 = load i32, i32* %9, align 4
  %124 = sext i32 %123 to i64
  %125 = getelementptr inbounds [10 x i32], [10 x i32]* %7, i64 0, i64 %124
  %126 = load i32, i32* %125, align 4
  %127 = sext i32 %126 to i64
  %128 = getelementptr inbounds [10 x i32], [10 x i32]* %8, i64 0, i64 %127
  %129 = load i32, i32* %128, align 4
  %130 = load i32, i32* %9, align 4
  %131 = icmp eq i32 %129, %130
  br i1 %131, label %132, label %141

132:                                              ; preds = %122
  %133 = load i32, i32* %9, align 4
  %134 = load i32, i32* %9, align 4
  %135 = sext i32 %134 to i64
  %136 = getelementptr inbounds [10 x i32], [10 x i32]* %7, i64 0, i64 %135
  %137 = load i32, i32* %136, align 4
  %138 = call i32 (i8*, ...) @printf(i8* getelementptr inbounds ([6 x i8], [6 x i8]* @.str.2, i64 0, i64 0), i32 %133, i32 %137)
  %139 = load i32, i32* %6, align 4
  %140 = add nsw i32 %139, 1
  store i32 %140, i32* %6, align 4
  br label %141

141:                                              ; preds = %132, %122
  br label %142

142:                                              ; preds = %141
  %143 = load i32, i32* %9, align 4
  %144 = add nsw i32 %143, 1
  store i32 %144, i32* %9, align 4
  br label %118

145:                                              ; preds = %118
  %146 = load i32, i32* %6, align 4
  %147 = icmp eq i32 %146, 0
  br i1 %147, label %148, label %150

148:                                              ; preds = %145
  %149 = call i32 (i8*, ...) @printf(i8* getelementptr inbounds ([3 x i8], [3 x i8]* @.str.3, i64 0, i64 0))
  br label %150

150:                                              ; preds = %148, %145
  ret i32 0
}

declare dso_local i32 @__isoc99_scanf(i8*, ...) #1

declare dso_local i32 @printf(i8*, ...) #1


!llvm.module.flags = !{!0}
!llvm.ident = !{!1}

!0 = !{i32 1, !"wchar_size", i32 4}
!1 = !{!"clang version 10.0.0-4ubuntu1 "}
